; Function Attrs: nounwind uwtable
define noundef i32 @highlight_file(ptr noundef %0, ptr noundef %1) local_unnamed_addr #0 {
  %3 = alloca %struct._zend_lex_state, align 8
  %4 = alloca %struct._zend_file_handle, align 8
  call void @zend_stream_init_filename(ptr noundef nonnull %4, ptr noundef %0) #16
  %5 = load i32, ptr getelementptr inbounds (%struct._zend_php_scanner_globals, ptr @language_scanner_globals, i64 0, i32 2), align 8
  store i32 %5, ptr %3, align 8
  %6 = getelementptr inbounds i8, ptr %3, i64 8
  %7 = load <2 x ptr>, ptr getelementptr inbounds (%struct._zend_php_scanner_globals, ptr @language_scanner_globals, i64 0, i32 3), align 8
  store <2 x ptr> %7, ptr %6, align 8
  %8 = getelementptr inbounds i8, ptr %3, i64 24
  %9 = load <2 x ptr>, ptr getelementptr inbounds (%struct._zend_php_scanner_globals, ptr @language_scanner_globals, i64 0, i32 5), align 8
  store <2 x ptr> %9, ptr %8, align 8
  %10 = load ptr, ptr getelementptr inbounds (%struct._zend_php_scanner_globals, ptr @language_scanner_globals, i64 0, i32 7), align 8
  %11 = getelementptr inbounds i8, ptr %3, i64 40
  store ptr %10, ptr %11, align 8
  %12 = getelementptr inbounds i8, ptr %3, i64 56
  call void @llvm.memcpy.p0.p0.i64(ptr noundef nonnull align 8 dereferenceable(24) %12, ptr noundef nonnull align 8 dereferenceable(24) getelementptr inbounds (%struct._zend_php_scanner_globals, ptr @language_scanner_globals, i64 0, i32 9), i64 24, i1 false)
  call void @zend_stack_init(ptr noundef nonnull getelementptr inbounds (%struct._zend_php_scanner_globals, ptr @language_scanner_globals, i64 0, i32 9), i32 noundef 4) #16
  %13 = getelementptr inbounds i8, ptr %3, i64 112
  call void @llvm.memcpy.p0.p0.i64(ptr noundef nonnull align 8 dereferenceable(24) %13, ptr noundef nonnull align 8 dereferenceable(24) getelementptr inbounds (%struct._zend_php_scanner_globals, ptr @language_scanner_globals, i64 0, i32 11), i64 24, i1 false)
  call void @zend_stack_init(ptr noundef nonnull getelementptr inbounds (%struct._zend_php_scanner_globals, ptr @language_scanner_globals, i64 0, i32 11), i32 noundef 8) #16
  %14 = getelementptr inbounds i8, ptr %3, i64 80
  call void @llvm.memcpy.p0.p0.i64(ptr noundef nonnull align 8 dereferenceable(32) %14, ptr noundef nonnull align 8 dereferenceable(32) getelementptr inbounds (%struct._zend_php_scanner_globals, ptr @language_scanner_globals, i64 0, i32 10), i64 32, i1 false)
  call void @zend_ptr_stack_init(ptr noundef nonnull getelementptr inbounds (%struct._zend_php_scanner_globals, ptr @language_scanner_globals, i64 0, i32 10)) #16
  %15 = load ptr, ptr @language_scanner_globals, align 8
  %16 = getelementptr inbounds i8, ptr %3, i64 136
  store ptr %15, ptr %16, align 8
  %17 = load i32, ptr getelementptr inbounds (%struct._zend_php_scanner_globals, ptr @language_scanner_globals, i64 0, i32 8), align 8
  %18 = getelementptr inbounds i8, ptr %3, i64 48
  store i32 %17, ptr %18, align 8
  %19 = load ptr, ptr getelementptr inbounds (%struct._zend_compiler_globals, ptr @compiler_globals, i64 0, i32 2), align 8
  %20 = getelementptr inbounds i8, ptr %3, i64 152
  store ptr %19, ptr %20, align 8
  %21 = load i32, ptr getelementptr inbounds (%struct._zend_compiler_globals, ptr @compiler_globals, i64 0, i32 3), align 8
  %22 = getelementptr inbounds i8, ptr %3, i64 144
  store i32 %21, ptr %22, align 8
  store ptr null, ptr getelementptr inbounds (%struct._zend_compiler_globals, ptr @compiler_globals, i64 0, i32 2), align 8
  %23 = load ptr, ptr getelementptr inbounds (%struct._zend_php_scanner_globals, ptr @language_scanner_globals, i64 0, i32 15), align 8
  %24 = getelementptr inbounds i8, ptr %3, i64 160
  store ptr %23, ptr %24, align 8
  %25 = load i64, ptr getelementptr inbounds (%struct._zend_php_scanner_globals, ptr @language_scanner_globals, i64 0, i32 16), align 8
  %26 = getelementptr inbounds i8, ptr %3, i64 168
  store i64 %25, ptr %26, align 8
  %27 = load ptr, ptr getelementptr inbounds (%struct._zend_php_scanner_globals, ptr @language_scanner_globals, i64 0, i32 17), align 8
  %28 = getelementptr inbounds i8, ptr %3, i64 176
  store ptr %27, ptr %28, align 8
  %29 = load i64, ptr getelementptr inbounds (%struct._zend_php_scanner_globals, ptr @language_scanner_globals, i64 0, i32 18), align 8
  %30 = getelementptr inbounds i8, ptr %3, i64 184
  store i64 %29, ptr %30, align 8
  %31 = getelementptr inbounds i8, ptr %3, i64 192
  %32 = load <2 x ptr>, ptr getelementptr inbounds (%struct._zend_php_scanner_globals, ptr @language_scanner_globals, i64 0, i32 19), align 8
  store <2 x ptr> %32, ptr %31, align 8
  %33 = load ptr, ptr getelementptr inbounds (%struct._zend_php_scanner_globals, ptr @language_scanner_globals, i64 0, i32 21), align 8
  %34 = getelementptr inbounds i8, ptr %3, i64 208
  store ptr %33, ptr %34, align 8
  %35 = getelementptr inbounds i8, ptr %3, i64 216
  %36 = load <2 x ptr>, ptr getelementptr inbounds (%struct._zend_php_scanner_globals, ptr @language_scanner_globals, i64 0, i32 23), align 8
  store <2 x ptr> %36, ptr %35, align 8
  %37 = getelementptr inbounds i8, ptr %3, i64 232
  %38 = load <2 x ptr>, ptr getelementptr inbounds (%struct._zend_compiler_globals, ptr @compiler_globals, i64 0, i32 31), align 8
  store <2 x ptr> %38, ptr %37, align 8
  %39 = call i32 @open_file_for_scanning(ptr noundef nonnull %4), !range !4
  %40 = icmp eq i32 %39, -1
  br i1 %40, label %41, label %42

41:                                               ; preds = %2
  call void @zend_message_dispatcher(i64 noundef 3, ptr noundef %0) #16
  br label %45

42:                                               ; preds = %2
  call void @zend_highlight(ptr noundef %1) #16
  %43 = load ptr, ptr getelementptr inbounds (%struct._zend_php_scanner_globals, ptr @language_scanner_globals, i64 0, i32 17), align 8
  %.not = icmp eq ptr %43, null
  br i1 %.not, label %45, label %44

44:                                               ; preds = %42
  call void @_efree(ptr noundef nonnull %43) #16
  store ptr null, ptr getelementptr inbounds (%struct._zend_php_scanner_globals, ptr @language_scanner_globals, i64 0, i32 17), align 8
  br label %45

45:                                               ; preds = %42, %44, %41
  %.0 = phi i32 [ -1, %41 ], [ 0, %44 ], [ 0, %42 ]
  call void @zend_destroy_file_handle(ptr noundef nonnull %4) #16
  call void @zend_restore_lexical_state(ptr noundef nonnull %3)
  ret i32 %.0
}